target datalayout = "e-m:e-p270:32:32-p271:32:32-p272:64:64-i64:64-i128:128-f80:128-n8:16:32:64-S128"
target triple = "x86_64-pc-linux-gnu"

%struct.ForEachState = type { ptr, i32 }
%struct.ImportForeignSchemaStmt = type { i32, ptr, ptr, ptr, i32, ptr, ptr }
%struct.List = type { i32, i32, i32, ptr, [0 x %union.ListCell] }
%union.ListCell = type { ptr }
%struct.RangeVar = type { i32, ptr, ptr, ptr, i8, i8, ptr, i32 }

; Function Attrs: nounwind uwtable
define dso_local zeroext i1 @IsImportableForeignTable(ptr noundef %0, ptr noundef %1) #0 {
  %3 = alloca i1, align 1
  %4 = alloca ptr, align 8
  %5 = alloca ptr, align 8
  %6 = alloca ptr, align 8
  %7 = alloca i32, align 4
  %8 = alloca %struct.ForEachState, align 8
  %9 = alloca ptr, align 8
  %10 = alloca %struct.ForEachState, align 8
  %11 = alloca ptr, align 8
  store ptr %0, ptr %4, align 8
  store ptr %1, ptr %5, align 8
  call void @llvm.lifetime.start.p0(i64 8, ptr %6) #9
  %12 = load ptr, ptr %5, align 8
  %13 = getelementptr inbounds nuw %struct.ImportForeignSchemaStmt, ptr %12, i32 0, i32 4
  %14 = load i32, ptr %13, align 8
  switch i32 %14, label %124 [
    i32 0, label %15
    i32 1, label %16
    i32 2, label %70
  ]

15:                                               ; preds = %2
  store i1 true, ptr %3, align 1
  store i32 1, ptr %7, align 4
  br label %125

16:                                               ; preds = %2
  call void @llvm.lifetime.start.p0(i64 16, ptr %8) #9
  %17 = getelementptr inbounds nuw %struct.ForEachState, ptr %8, i32 0, i32 0
  %18 = load ptr, ptr %5, align 8
  %19 = getelementptr inbounds nuw %struct.ImportForeignSchemaStmt, ptr %18, i32 0, i32 5
  %20 = load ptr, ptr %19, align 8
  store ptr %20, ptr %17, align 8
  %21 = getelementptr inbounds nuw %struct.ForEachState, ptr %8, i32 0, i32 1
  store i32 0, ptr %21, align 8
  %22 = getelementptr i8, ptr %8, i64 12
  call void @llvm.memset.p0.i64(ptr align 4 %22, i8 0, i64 4, i1 false)
  br label %23

23:                                               ; preds = %63, %16
  %24 = getelementptr inbounds nuw %struct.ForEachState, ptr %8, i32 0, i32 0
  %25 = load ptr, ptr %24, align 8
  %26 = icmp ne ptr %25, null
  br i1 %26, label %27, label %44

27:                                               ; preds = %23
  %28 = getelementptr inbounds nuw %struct.ForEachState, ptr %8, i32 0, i32 1
  %29 = load i32, ptr %28, align 8
  %30 = getelementptr inbounds nuw %struct.ForEachState, ptr %8, i32 0, i32 0
  %31 = load ptr, ptr %30, align 8
  %32 = getelementptr inbounds nuw %struct.List, ptr %31, i32 0, i32 1
  %33 = load i32, ptr %32, align 4
  %34 = icmp slt i32 %29, %33
  br i1 %34, label %35, label %44

35:                                               ; preds = %27
  %36 = getelementptr inbounds nuw %struct.ForEachState, ptr %8, i32 0, i32 0
  %37 = load ptr, ptr %36, align 8
  %38 = getelementptr inbounds nuw %struct.List, ptr %37, i32 0, i32 3
  %39 = load ptr, ptr %38, align 8
  %40 = getelementptr inbounds nuw %struct.ForEachState, ptr %8, i32 0, i32 1
  %41 = load i32, ptr %40, align 8
  %42 = sext i32 %41 to i64
  %43 = getelementptr inbounds %union.ListCell, ptr %39, i64 %42
  store ptr %43, ptr %6, align 8
  br label %45

44:                                               ; preds = %27, %23
  store ptr null, ptr %6, align 8
  br label %45

45:                                               ; preds = %44, %35
  %46 = phi i32 [ 1, %35 ], [ 0, %44 ]
  %47 = icmp ne i32 %46, 0
  br i1 %47, label %49, label %48

48:                                               ; preds = %45
  store i32 3, ptr %7, align 4
  br label %67

49:                                               ; preds = %45
  call void @llvm.lifetime.start.p0(i64 8, ptr %9) #9
  %50 = load ptr, ptr %6, align 8
  %51 = load ptr, ptr %50, align 8
  store ptr %51, ptr %9, align 8
  %52 = load ptr, ptr %4, align 8
  %53 = load ptr, ptr %9, align 8
  %54 = getelementptr inbounds nuw %struct.RangeVar, ptr %53, i32 0, i32 3
  %55 = load ptr, ptr %54, align 8
  %56 = call i32 @strcmp(ptr noundef %52, ptr noundef %55) #11
  %57 = icmp eq i32 %56, 0
  br i1 %57, label %58, label %59

58:                                               ; preds = %49
  store i1 true, ptr %3, align 1
  store i32 1, ptr %7, align 4
  br label %60

59:                                               ; preds = %49
  store i32 0, ptr %7, align 4
  br label %60

60:                                               ; preds = %59, %58
  call void @llvm.lifetime.end.p0(i64 8, ptr %9) #9
  %61 = load i32, ptr %7, align 4
  switch i32 %61, label %67 [
    i32 0, label %62
  ]

62:                                               ; preds = %60
  br label %63

63:                                               ; preds = %62
  %64 = getelementptr inbounds nuw %struct.ForEachState, ptr %8, i32 0, i32 1
  %65 = load i32, ptr %64, align 8
  %66 = add i32 %65, 1
  store i32 %66, ptr %64, align 8
  br label %23, !llvm.loop !6

67:                                               ; preds = %60, %48
  call void @llvm.lifetime.end.p0(i64 16, ptr %8) #9
  %68 = load i32, ptr %7, align 4
  switch i32 %68, label %125 [
    i32 3, label %69
  ]

69:                                               ; preds = %67
  store i1 false, ptr %3, align 1
  store i32 1, ptr %7, align 4
  br label %125

70:                                               ; preds = %2
  call void @llvm.lifetime.start.p0(i64 16, ptr %10) #9
  %71 = getelementptr inbounds nuw %struct.ForEachState, ptr %10, i32 0, i32 0
  %72 = load ptr, ptr %5, align 8
  %73 = getelementptr inbounds nuw %struct.ImportForeignSchemaStmt, ptr %72, i32 0, i32 5
  %74 = load ptr, ptr %73, align 8
  store ptr %74, ptr %71, align 8
  %75 = getelementptr inbounds nuw %struct.ForEachState, ptr %10, i32 0, i32 1
  store i32 0, ptr %75, align 8
  %76 = getelementptr i8, ptr %10, i64 12
  call void @llvm.memset.p0.i64(ptr align 4 %76, i8 0, i64 4, i1 false)
  br label %77

77:                                               ; preds = %117, %70
  %78 = getelementptr inbounds nuw %struct.ForEachState, ptr %10, i32 0, i32 0
  %79 = load ptr, ptr %78, align 8
  %80 = icmp ne ptr %79, null
  br i1 %80, label %81, label %98

81:                                               ; preds = %77
  %82 = getelementptr inbounds nuw %struct.ForEachState, ptr %10, i32 0, i32 1
  %83 = load i32, ptr %82, align 8
  %84 = getelementptr inbounds nuw %struct.ForEachState, ptr %10, i32 0, i32 0
  %85 = load ptr, ptr %84, align 8
  %86 = getelementptr inbounds nuw %struct.List, ptr %85, i32 0, i32 1
  %87 = load i32, ptr %86, align 4
  %88 = icmp slt i32 %83, %87
  br i1 %88, label %89, label %98

89:                                               ; preds = %81
  %90 = getelementptr inbounds nuw %struct.ForEachState, ptr %10, i32 0, i32 0
  %91 = load ptr, ptr %90, align 8
  %92 = getelementptr inbounds nuw %struct.List, ptr %91, i32 0, i32 3
  %93 = load ptr, ptr %92, align 8
  %94 = getelementptr inbounds nuw %struct.ForEachState, ptr %10, i32 0, i32 1
  %95 = load i32, ptr %94, align 8
  %96 = sext i32 %95 to i64
  %97 = getelementptr inbounds %union.ListCell, ptr %93, i64 %96
  store ptr %97, ptr %6, align 8
  br label %99

98:                                               ; preds = %81, %77
  store ptr null, ptr %6, align 8
  br label %99

99:                                               ; preds = %98, %89
  %100 = phi i32 [ 1, %89 ], [ 0, %98 ]
  %101 = icmp ne i32 %100, 0
  br i1 %101, label %103, label %102

102:                                              ; preds = %99
  store i32 6, ptr %7, align 4
  br label %121

103:                                              ; preds = %99
  call void @llvm.lifetime.start.p0(i64 8, ptr %11) #9
  %104 = load ptr, ptr %6, align 8
  %105 = load ptr, ptr %104, align 8
  store ptr %105, ptr %11, align 8
  %106 = load ptr, ptr %4, align 8
  %107 = load ptr, ptr %11, align 8
  %108 = getelementptr inbounds nuw %struct.RangeVar, ptr %107, i32 0, i32 3
  %109 = load ptr, ptr %108, align 8
  %110 = call i32 @strcmp(ptr noundef %106, ptr noundef %109) #11
  %111 = icmp eq i32 %110, 0
  br i1 %111, label %112, label %113

112:                                              ; preds = %103
  store i1 false, ptr %3, align 1
  store i32 1, ptr %7, align 4
  br label %114

113:                                              ; preds = %103
  store i32 0, ptr %7, align 4
  br label %114

114:                                              ; preds = %113, %112
  call void @llvm.lifetime.end.p0(i64 8, ptr %11) #9
  %115 = load i32, ptr %7, align 4
  switch i32 %115, label %121 [
    i32 0, label %116
  ]

116:                                              ; preds = %114
  br label %117

117:                                              ; preds = %116
  %118 = getelementptr inbounds nuw %struct.ForEachState, ptr %10, i32 0, i32 1
  %119 = load i32, ptr %118, align 8
  %120 = add i32 %119, 1
  store i32 %120, ptr %118, align 8
  br label %77, !llvm.loop !8

121:                                              ; preds = %114, %102
  call void @llvm.lifetime.end.p0(i64 16, ptr %10) #9
  %122 = load i32, ptr %7, align 4
  switch i32 %122, label %125 [
    i32 6, label %123
  ]

123:                                              ; preds = %121
  store i1 true, ptr %3, align 1
  store i32 1, ptr %7, align 4
  br label %125

124:                                              ; preds = %2
  store i1 false, ptr %3, align 1
  store i32 1, ptr %7, align 4
  br label %125

125:                                              ; preds = %124, %123, %121, %69, %67, %15
  call void @llvm.lifetime.end.p0(i64 8, ptr %6) #9
  %126 = load i1, ptr %3, align 1
  ret i1 %126
}