; Function Attrs: nofree nounwind memory(read, inaccessiblemem: none) uwtable
define dso_local noundef zeroext i1 @IsImportableForeignTable(ptr noundef readonly captures(none) %0, ptr noundef readonly captures(none) %1) local_unnamed_addr #5 {
  %3 = getelementptr inbounds nuw i8, ptr %1, i64 32
  %4 = load i32, ptr %3, align 8
  switch i32 %4, label %33 [
    i32 0, label %.thread47
    i32 1, label %5
    i32 2, label %19
  ]

5:                                                ; preds = %2
  %6 = getelementptr inbounds nuw i8, ptr %1, i64 40
  %7 = load ptr, ptr %6, align 8
  %8 = getelementptr inbounds nuw i8, ptr %7, i64 16
  %.not37 = icmp eq ptr %7, null
  br i1 %.not37, label %.thread47, label %.lr.ph64

.lr.ph64:                                         ; preds = %5
  %9 = getelementptr inbounds nuw i8, ptr %7, i64 4
  %10 = load i32, ptr %9, align 4
  %11 = icmp sgt i32 %10, 0
  br i1 %11, label %.lr.ph74, label %.thread47

.lr.ph74:                                         ; preds = %.lr.ph64
  %12 = load ptr, ptr %8, align 8
  %wide.trip.count82 = zext nneg i32 %10 to i64
  br label %13

13:                                               ; preds = %13, %.lr.ph74
  %indvars.iv79 = phi i64 [ 0, %.lr.ph74 ], [ %indvars.iv.next80, %13 ]
  %14 = getelementptr inbounds nuw %union.ListCell, ptr %12, i64 %indvars.iv79
  %15 = load ptr, ptr %14, align 8
  %16 = getelementptr inbounds nuw i8, ptr %15, i64 24
  %17 = load ptr, ptr %16, align 8
  %18 = tail call i32 @strcmp(ptr noundef nonnull dereferenceable(1) %0, ptr noundef nonnull dereferenceable(1) %17) #10
  %.not39 = icmp eq i32 %18, 0
  %indvars.iv.next80 = add nuw nsw i64 %indvars.iv79, 1
  %exitcond83.not = icmp eq i64 %indvars.iv.next80, %wide.trip.count82
  %or.cond = select i1 %.not39, i1 true, i1 %exitcond83.not
  br i1 %or.cond, label %.thread47, label %13

19:                                               ; preds = %2
  %20 = getelementptr inbounds nuw i8, ptr %1, i64 40
  %21 = load ptr, ptr %20, align 8
  %22 = getelementptr inbounds nuw i8, ptr %21, i64 16
  %.not = icmp eq ptr %21, null
  br i1 %.not, label %.thread47, label %.lr.ph

.lr.ph:                                           ; preds = %19
  %23 = getelementptr inbounds nuw i8, ptr %21, i64 4
  %24 = load i32, ptr %23, align 4
  %25 = icmp sgt i32 %24, 0
  br i1 %25, label %.lr.ph61, label %.thread47

.lr.ph61:                                         ; preds = %.lr.ph
  %26 = load ptr, ptr %22, align 8
  %wide.trip.count = zext nneg i32 %24 to i64
  br label %27

27:                                               ; preds = %27, %.lr.ph61
  %indvars.iv = phi i64 [ 0, %.lr.ph61 ], [ %indvars.iv.next, %27 ]
  %28 = getelementptr inbounds nuw %union.ListCell, ptr %26, i64 %indvars.iv
  %29 = load ptr, ptr %28, align 8
  %30 = getelementptr inbounds nuw i8, ptr %29, i64 24
  %31 = load ptr, ptr %30, align 8
  %32 = tail call i32 @strcmp(ptr noundef nonnull dereferenceable(1) %0, ptr noundef nonnull dereferenceable(1) %31) #10
  %.not36.not = icmp ne i32 %32, 0
  %indvars.iv.next = add nuw nsw i64 %indvars.iv, 1
  %exitcond.not = icmp ne i64 %indvars.iv.next, %wide.trip.count
  %or.cond88.not = select i1 %.not36.not, i1 %exitcond.not, i1 false
  br i1 %or.cond88.not, label %27, label %.thread47

33:                                               ; preds = %2
  br label %.thread47

.thread47:                                        ; preds = %27, %13, %19, %.lr.ph, %5, %.lr.ph64, %2, %33
  %.0 = phi i1 [ false, %33 ], [ true, %2 ], [ false, %5 ], [ false, %.lr.ph64 ], [ true, %19 ], [ true, %.lr.ph ], [ %.not39, %13 ], [ %.not36.not, %27 ]
  ret i1 %.0
}